; ModuleID = '7/1072.cpp'
source_filename = "7/1072.cpp"
target datalayout = "e-m:e-p270:32:32-p271:32:32-p272:64:64-i64:64-f80:128-n8:16:32:64-S128"
target triple = "x86_64-pc-linux-gnu"

%"class.std::ios_base::Init" = type { i8 }
%"class.std::basic_istream" = type { i32 (...)**, i64, %"class.std::basic_ios" }
%"class.std::basic_ios" = type { %"class.std::ios_base", %"class.std::basic_ostream"*, i8, i8, %"class.std::basic_streambuf"*, %"class.std::ctype"*, %"class.std::num_put"*, %"class.std::num_get"* }
%"class.std::ios_base" = type { i32 (...)**, i64, i64, i32, i32, i32, %"struct.std::ios_base::_Callback_list"*, %"struct.std::ios_base::_Words", [8 x %"struct.std::ios_base::_Words"], i32, %"struct.std::ios_base::_Words"*, %"class.std::locale" }
%"struct.std::ios_base::_Callback_list" = type { %"struct.std::ios_base::_Callback_list"*, void (i32, %"class.std::ios_base"*, i32)*, i32, i32 }
%"struct.std::ios_base::_Words" = type { i8*, i64 }
%"class.std::locale" = type { %"class.std::locale::_Impl"* }
%"class.std::locale::_Impl" = type { i32, %"class.std::locale::facet"**, i64, %"class.std::locale::facet"**, i8** }
%"class.std::locale::facet" = type <{ i32 (...)**, i32, [4 x i8] }>
%"class.std::basic_ostream" = type { i32 (...)**, %"class.std::basic_ios" }
%"class.std::basic_streambuf" = type { i32 (...)**, i8*, i8*, i8*, i8*, i8*, i8*, %"class.std::locale" }
%"class.std::ctype" = type <{ %"class.std::locale::facet.base", [4 x i8], %struct.__locale_struct*, i8, [7 x i8], i32*, i32*, i16*, i8, [256 x i8], [256 x i8], i8, [6 x i8] }>
%"class.std::locale::facet.base" = type <{ i32 (...)**, i32 }>
%struct.__locale_struct = type { [13 x %struct.__locale_data*], i16*, i32*, i32*, [13 x i8*] }
%struct.__locale_data = type opaque
%"class.std::num_put" = type { %"class.std::locale::facet.base", [4 x i8] }
%"class.std::num_get" = type { %"class.std::locale::facet.base", [4 x i8] }

@_ZStL8__ioinit = internal global %"class.std::ios_base::Init" zeroinitializer, align 1
@__dso_handle = external hidden global i8
@a = dso_local global [1000 x i8] zeroinitializer, align 16
@b = dso_local global [1000 x i8] zeroinitializer, align 16
@c = dso_local global [1000 x i8] zeroinitializer, align 16
@_ZSt3cin = external dso_local global %"class.std::basic_istream", align 8
@_ZSt4cout = external dso_local global %"class.std::basic_ostream", align 8
@llvm.global_ctors = appending global [1 x { i32, void ()*, i8* }] [{ i32, void ()*, i8* } { i32 65535, void ()* @_GLOBAL__sub_I_1072.cpp, i8* null }]

; Function Attrs: noinline uwtable
define internal void @__cxx_global_var_init() #0 section ".text.startup" {
  call void @_ZNSt8ios_base4InitC1Ev(%"class.std::ios_base::Init"* @_ZStL8__ioinit)
  %1 = call i32 @__cxa_atexit(void (i8*)* bitcast (void (%"class.std::ios_base::Init"*)* @_ZNSt8ios_base4InitD1Ev to void (i8*)*), i8* getelementptr inbounds (%"class.std::ios_base::Init", %"class.std::ios_base::Init"* @_ZStL8__ioinit, i32 0, i32 0), i8* @__dso_handle) #3
  ret void
}

declare dso_local void @_ZNSt8ios_base4InitC1Ev(%"class.std::ios_base::Init"*) unnamed_addr #1

; Function Attrs: nounwind
declare dso_local void @_ZNSt8ios_base4InitD1Ev(%"class.std::ios_base::Init"*) unnamed_addr #2

; Function Attrs: nounwind
declare dso_local i32 @__cxa_atexit(void (i8*)*, i8*, i8*) #3

; Function Attrs: noinline norecurse uwtable
define dso_local i32 @main() #4 {
  %1 = alloca i32, align 4
  %2 = alloca i32, align 4
  %3 = alloca i32, align 4
  %4 = alloca i32, align 4
  %5 = alloca i32, align 4
  %6 = alloca i32, align 4
  store i32 0, i32* %1, align 4
  %7 = call dereferenceable(280) %"class.std::basic_istream"* @_ZStrsIcSt11char_traitsIcEERSt13basic_istreamIT_T0_ES6_PS3_(%"class.std::basic_istream"* dereferenceable(280) @_ZSt3cin, i8* getelementptr inbounds ([1000 x i8], [1000 x i8]* @a, i64 0, i64 0))
  %8 = call dereferenceable(280) %"class.std::basic_istream"* @_ZStrsIcSt11char_traitsIcEERSt13basic_istreamIT_T0_ES6_PS3_(%"class.std::basic_istream"* dereferenceable(280) @_ZSt3cin, i8* getelementptr inbounds ([1000 x i8], [1000 x i8]* @b, i64 0, i64 0))
  %9 = call dereferenceable(280) %"class.std::basic_istream"* @_ZStrsIcSt11char_traitsIcEERSt13basic_istreamIT_T0_ES6_PS3_(%"class.std::basic_istream"* dereferenceable(280) @_ZSt3cin, i8* getelementptr inbounds ([1000 x i8], [1000 x i8]* @c, i64 0, i64 0))
  store i32 0, i32* %4, align 4
  %10 = call i64 @strlen(i8* getelementptr inbounds ([1000 x i8], [1000 x i8]* @a, i64 0, i64 0)) #6
  %11 = trunc i64 %10 to i32
  store i32 %11, i32* %2, align 4
  %12 = call i64 @strlen(i8* getelementptr inbounds ([1000 x i8], [1000 x i8]* @b, i64 0, i64 0)) #6
  %13 = trunc i64 %12 to i32
  store i32 %13, i32* %3, align 4
  store i32 0, i32* %5, align 4
  br label %14

14:                                               ; preds = %84, %0
  %15 = load i32, i32* %5, align 4
  %16 = load i32, i32* %2, align 4
  %17 = load i32, i32* %3, align 4
  %18 = sub nsw i32 %16, %17
  %19 = add nsw i32 %18, 1
  %20 = icmp slt i32 %15, %19
  br i1 %20, label %21, label %87

21:                                               ; preds = %14
  %22 = load i32, i32* %5, align 4
  %23 = sext i32 %22 to i64
  %24 = getelementptr inbounds [1000 x i8], [1000 x i8]* @a, i64 0, i64 %23
  %25 = load i8, i8* %24, align 1
  %26 = sext i8 %25 to i32
  %27 = load i8, i8* getelementptr inbounds ([1000 x i8], [1000 x i8]* @b, i64 0, i64 0), align 16
  %28 = sext i8 %27 to i32
  %29 = icmp eq i32 %26, %28
  br i1 %29, label %30, label %83

30:                                               ; preds = %21
  store i32 1, i32* %4, align 4
  %31 = load i32, i32* %5, align 4
  store i32 %31, i32* %6, align 4
  br label %32

32:                                               ; preds = %54, %30
  %33 = load i32, i32* %6, align 4
  %34 = load i32, i32* %3, align 4
  %35 = load i32, i32* %5, align 4
  %36 = add nsw i32 %34, %35
  %37 = icmp slt i32 %33, %36
  br i1 %37, label %38, label %57

38:                                               ; preds = %32
  %39 = load i32, i32* %6, align 4
  %40 = sext i32 %39 to i64
  %41 = getelementptr inbounds [1000 x i8], [1000 x i8]* @a, i64 0, i64 %40
  %42 = load i8, i8* %41, align 1
  %43 = sext i8 %42 to i32
  %44 = load i32, i32* %6, align 4
  %45 = load i32, i32* %5, align 4
  %46 = sub nsw i32 %44, %45
  %47 = sext i32 %46 to i64
  %48 = getelementptr inbounds [1000 x i8], [1000 x i8]* @b, i64 0, i64 %47
  %49 = load i8, i8* %48, align 1
  %50 = sext i8 %49 to i32
  %51 = icmp ne i32 %43, %50
  br i1 %51, label %52, label %53

52:                                               ; preds = %38
  store i32 0, i32* %4, align 4
  br label %57

53:                                               ; preds = %38
  br label %54

54:                                               ; preds = %53
  %55 = load i32, i32* %6, align 4
  %56 = add nsw i32 %55, 1
  store i32 %56, i32* %6, align 4
  br label %32

57:                                               ; preds = %52, %32
  %58 = load i32, i32* %4, align 4
  %59 = icmp eq i32 %58, 1
  br i1 %59, label %60, label %82

60:                                               ; preds = %57
  %61 = load i32, i32* %5, align 4
  store i32 %61, i32* %6, align 4
  br label %62

62:                                               ; preds = %78, %60
  %63 = load i32, i32* %6, align 4
  %64 = load i32, i32* %3, align 4
  %65 = load i32, i32* %5, align 4
  %66 = add nsw i32 %64, %65
  %67 = icmp slt i32 %63, %66
  br i1 %67, label %68, label %81

68:                                               ; preds = %62
  %69 = load i32, i32* %6, align 4
  %70 = load i32, i32* %5, align 4
  %71 = sub nsw i32 %69, %70
  %72 = sext i32 %71 to i64
  %73 = getelementptr inbounds [1000 x i8], [1000 x i8]* @c, i64 0, i64 %72
  %74 = load i8, i8* %73, align 1
  %75 = load i32, i32* %6, align 4
  %76 = sext i32 %75 to i64
  %77 = getelementptr inbounds [1000 x i8], [1000 x i8]* @a, i64 0, i64 %76
  store i8 %74, i8* %77, align 1
  br label %78

78:                                               ; preds = %68
  %79 = load i32, i32* %6, align 4
  %80 = add nsw i32 %79, 1
  store i32 %80, i32* %6, align 4
  br label %62

81:                                               ; preds = %62
  br label %87

82:                                               ; preds = %57
  br label %83

83:                                               ; preds = %82, %21
  br label %84

84:                                               ; preds = %83
  %85 = load i32, i32* %5, align 4
  %86 = add nsw i32 %85, 1
  store i32 %86, i32* %5, align 4
  br label %14

87:                                               ; preds = %81, %14
  %88 = call dereferenceable(272) %"class.std::basic_ostream"* @_ZStlsISt11char_traitsIcEERSt13basic_ostreamIcT_ES5_PKc(%"class.std::basic_ostream"* dereferenceable(272) @_ZSt4cout, i8* getelementptr inbounds ([1000 x i8], [1000 x i8]* @a, i64 0, i64 0))
  %89 = call dereferenceable(272) %"class.std::basic_ostream"* @_ZNSolsEPFRSoS_E(%"class.std::basic_ostream"* %88, %"class.std::basic_ostream"* (%"class.std::basic_ostream"*)* @_ZSt4endlIcSt11char_traitsIcEERSt13basic_ostreamIT_T0_ES6_)
  ret i32 0
}

declare dso_local dereferenceable(280) %"class.std::basic_istream"* @_ZStrsIcSt11char_traitsIcEERSt13basic_istreamIT_T0_ES6_PS3_(%"class.std::basic_istream"* dereferenceable(280), i8*) #1

; Function Attrs: nounwind readonly
declare dso_local i64 @strlen(i8*) #5

declare dso_local dereferenceable(272) %"class.std::basic_ostream"* @_ZStlsISt11char_traitsIcEERSt13basic_ostreamIcT_ES5_PKc(%"class.std::basic_ostream"* dereferenceable(272), i8*) #1

declare dso_local dereferenceable(272) %"class.std::basic_ostream"* @_ZNSolsEPFRSoS_E(%"class.std::basic_ostream"*, %"class.std::basic_ostream"* (%"class.std::basic_ostream"*)*) #1

declare dso_local dereferenceable(272) %"class.std::basic_ostream"* @_ZSt4endlIcSt11char_traitsIcEERSt13basic_ostreamIT_T0_ES6_(%"class.std::basic_ostream"* dereferenceable(272)) #1

; Function Attrs: noinline uwtable
define internal void @_GLOBAL__sub_I_1072.cpp() #0 section ".text.startup" {
  call void @__cxx_global_var_init()
  ret void
}


!llvm.module.flags = !{!0}
!llvm.ident = !{!1}

!0 = !{i32 1, !"wchar_size", i32 4}
!1 = !{!"clang version 10.0.0-4ubuntu1 "}
