; ModuleID = 'source-C-CXX/6/1072.cpp'
source_filename = "source-C-CXX/6/1072.cpp"
target datalayout = "e-m:e-p270:32:32-p271:32:32-p272:64:64-i64:64-f80:128-n8:16:32:64-S128"
target triple = "x86_64-pc-linux-gnu"

%"class.std::ios_base::Init" = type { i8 }
%"class.std::basic_istream" = type { i32 (...)**, i64, %"class.std::basic_ios" }
%"class.std::basic_ios" = type { %"class.std::ios_base", %"class.std::basic_ostream"*, i8, i8, %"class.std::basic_streambuf"*, %"class.std::ctype"*, %"class.std::num_put"*, %"class.std::num_get"* }
%"class.std::ios_base" = type { i32 (...)**, i64, i64, i32, i32, i32, %"struct.std::ios_base::_Callback_list"*, %"struct.std::ios_base::_Words", [8 x %"struct.std::ios_base::_Words"], i32, %"struct.std::ios_base::_Words"*, %"class.std::locale" }
%"struct.std::ios_base::_Callback_list" = type { %"struct.std::ios_base::_Callback_list"*, void (i32, %"class.std::ios_base"*, i32)*, i32, i32 }
%"struct.std::ios_base::_Words" = type { i8*, i64 }
%"class.std::locale" = type { %"class.std::locale::_Impl"* }
%"class.std::locale::_Impl" = type { i32, %"class.std::locale::facet"**, i64, %"class.std::locale::facet"**, i8** }
%"class.std::locale::facet" = type <{ i32 (...)**, i32, [4 x i8] }>
%"class.std::basic_ostream" = type { i32 (...)**, %"class.std::basic_ios" }
%"class.std::basic_streambuf" = type { i32 (...)**, i8*, i8*, i8*, i8*, i8*, i8*, %"class.std::locale" }
%"class.std::ctype" = type <{ %"class.std::locale::facet.base", [4 x i8], %struct.__locale_struct*, i8, [7 x i8], i32*, i32*, i16*, i8, [256 x i8], [256 x i8], i8, [6 x i8] }>
%"class.std::locale::facet.base" = type <{ i32 (...)**, i32 }>
%struct.__locale_struct = type { [13 x %struct.__locale_data*], i16*, i32*, i32*, [13 x i8*] }
%struct.__locale_data = type opaque
%"class.std::num_put" = type { %"class.std::locale::facet.base", [4 x i8] }
%"class.std::num_get" = type { %"class.std::locale::facet.base", [4 x i8] }

@_ZStL8__ioinit = internal global %"class.std::ios_base::Init" zeroinitializer, align 1
@__dso_handle = external hidden global i8
@a = dso_local global [1000 x i8] zeroinitializer, align 16
@b = dso_local global [1000 x i8] zeroinitializer, align 16
@c = dso_local global [1000 x i8] zeroinitializer, align 16
@_ZSt3cin = external global %"class.std::basic_istream", align 8
@_ZSt4cout = external global %"class.std::basic_ostream", align 8
@llvm.global_ctors = appending global [1 x { i32, void ()*, i8* }] [{ i32, void ()*, i8* } { i32 65535, void ()* @_GLOBAL__sub_I_1072.cpp, i8* null }]

declare void @_ZNSt8ios_base4InitC1Ev(%"class.std::ios_base::Init"* nonnull align 1 dereferenceable(1)) unnamed_addr #0

; Function Attrs: nounwind
declare void @_ZNSt8ios_base4InitD1Ev(%"class.std::ios_base::Init"* nonnull align 1 dereferenceable(1)) unnamed_addr #1

; Function Attrs: nofree nounwind
declare i32 @__cxa_atexit(void (i8*)*, i8*, i8*) local_unnamed_addr #2

; Function Attrs: mustprogress norecurse sspstrong uwtable
define dso_local i32 @main() local_unnamed_addr #3 {
  tail call void @_ZSt17__istream_extractRSiPcl(%"class.std::basic_istream"* nonnull align 8 dereferenceable(16) @_ZSt3cin, i8* nonnull getelementptr inbounds ([1000 x i8], [1000 x i8]* @a, i64 0, i64 0), i64 1000)
  tail call void @_ZSt17__istream_extractRSiPcl(%"class.std::basic_istream"* nonnull align 8 dereferenceable(16) @_ZSt3cin, i8* nonnull getelementptr inbounds ([1000 x i8], [1000 x i8]* @b, i64 0, i64 0), i64 1000)
  tail call void @_ZSt17__istream_extractRSiPcl(%"class.std::basic_istream"* nonnull align 8 dereferenceable(16) @_ZSt3cin, i8* nonnull getelementptr inbounds ([1000 x i8], [1000 x i8]* @c, i64 0, i64 0), i64 1000)
  %1 = tail call i64 @strlen(i8* noundef nonnull dereferenceable(1) getelementptr inbounds ([1000 x i8], [1000 x i8]* @a, i64 0, i64 0)) #9
  %2 = trunc i64 %1 to i32
  %3 = tail call i64 @strlen(i8* noundef nonnull dereferenceable(1) getelementptr inbounds ([1000 x i8], [1000 x i8]* @b, i64 0, i64 0)) #9
  %4 = trunc i64 %3 to i32
  %5 = load i8, i8* getelementptr inbounds ([1000 x i8], [1000 x i8]* @b, i64 0, i64 0), align 16
  %6 = icmp slt i32 %2, %4
  br i1 %6, label %49, label %7

7:                                                ; preds = %0
  %8 = add i64 %1, 1
  %9 = sub i64 %8, %3
  %10 = and i64 %9, 4294967295
  %11 = icmp sgt i32 %4, 0
  %12 = load i8, i8* getelementptr inbounds ([1000 x i8], [1000 x i8]* @b, i64 0, i64 0), align 16
  %13 = icmp eq i8 %5, %12
  br label %14

14:                                               ; preds = %7, %46
  %15 = phi i64 [ 0, %7 ], [ %47, %46 ]
  %16 = getelementptr inbounds [1000 x i8], [1000 x i8]* @a, i64 0, i64 %15
  %17 = load i8, i8* %16, align 1, !tbaa !5
  %18 = icmp eq i8 %17, %5
  br i1 %18, label %19, label %46

19:                                               ; preds = %14
  %20 = trunc i64 %15 to i32
  %21 = add nsw i32 %20, %4
  br i1 %11, label %22, label %49

22:                                               ; preds = %19
  br i1 %13, label %23, label %46

23:                                               ; preds = %22, %28
  %24 = phi i64 [ %25, %28 ], [ %15, %22 ]
  %25 = add nuw nsw i64 %24, 1
  %26 = trunc i64 %25 to i32
  %27 = icmp sgt i32 %21, %26
  br i1 %27, label %28, label %35, !llvm.loop !8

28:                                               ; preds = %23
  %29 = getelementptr inbounds [1000 x i8], [1000 x i8]* @a, i64 0, i64 %25
  %30 = load i8, i8* %29, align 1, !tbaa !5
  %31 = sub nuw nsw i64 %25, %15
  %32 = getelementptr inbounds [1000 x i8], [1000 x i8]* @b, i64 0, i64 %31
  %33 = load i8, i8* %32, align 1, !tbaa !5
  %34 = icmp eq i8 %30, %33
  br i1 %34, label %23, label %46

35:                                               ; preds = %23
  %36 = trunc i64 %15 to i32
  br i1 %11, label %37, label %49

37:                                               ; preds = %35
  %38 = and i64 %15, 4294967295
  %39 = getelementptr [1000 x i8], [1000 x i8]* @a, i64 0, i64 %38
  %40 = add nuw i32 %36, 1
  %41 = call i32 @llvm.smax.i32(i32 %21, i32 %40)
  %42 = xor i32 %36, -1
  %43 = add i32 %41, %42
  %44 = zext i32 %43 to i64
  %45 = add nuw nsw i64 %44, 1
  call void @llvm.memcpy.p0i8.p0i8.i64(i8* noundef nonnull align 1 dereferenceable(1) %39, i8* noundef nonnull align 16 dereferenceable(1) getelementptr inbounds ([1000 x i8], [1000 x i8]* @c, i64 0, i64 0), i64 %45, i1 false)
  br label %49

46:                                               ; preds = %28, %22, %14
  %47 = add nuw nsw i64 %15, 1
  %48 = icmp eq i64 %47, %10
  br i1 %48, label %49, label %14, !llvm.loop !10

49:                                               ; preds = %19, %46, %37, %0, %35
  %50 = tail call i64 @strlen(i8* noundef nonnull dereferenceable(1) getelementptr inbounds ([1000 x i8], [1000 x i8]* @a, i64 0, i64 0)) #10
  %51 = tail call nonnull align 8 dereferenceable(8) %"class.std::basic_ostream"* @_ZSt16__ostream_insertIcSt11char_traitsIcEERSt13basic_ostreamIT_T0_ES6_PKS3_l(%"class.std::basic_ostream"* nonnull align 8 dereferenceable(8) @_ZSt4cout, i8* nonnull getelementptr inbounds ([1000 x i8], [1000 x i8]* @a, i64 0, i64 0), i64 %50)
  %52 = load i8*, i8** bitcast (%"class.std::basic_ostream"* @_ZSt4cout to i8**), align 8, !tbaa !11
  %53 = getelementptr i8, i8* %52, i64 -24
  %54 = bitcast i8* %53 to i64*
  %55 = load i64, i64* %54, align 8
  %56 = add nsw i64 %55, 240
  %57 = getelementptr inbounds i8, i8* bitcast (%"class.std::basic_ostream"* @_ZSt4cout to i8*), i64 %56
  %58 = bitcast i8* %57 to %"class.std::ctype"**
  %59 = load %"class.std::ctype"*, %"class.std::ctype"** %58, align 8, !tbaa !13
  %60 = icmp eq %"class.std::ctype"* %59, null
  br i1 %60, label %61, label %62

61:                                               ; preds = %49
  tail call void @_ZSt16__throw_bad_castv() #11
  unreachable

62:                                               ; preds = %49
  %63 = getelementptr inbounds %"class.std::ctype", %"class.std::ctype"* %59, i64 0, i32 8
  %64 = load i8, i8* %63, align 8, !tbaa !17
  %65 = icmp eq i8 %64, 0
  br i1 %65, label %69, label %66

66:                                               ; preds = %62
  %67 = getelementptr inbounds %"class.std::ctype", %"class.std::ctype"* %59, i64 0, i32 9, i64 10
  %68 = load i8, i8* %67, align 1, !tbaa !5
  br label %75

69:                                               ; preds = %62
  tail call void @_ZNKSt5ctypeIcE13_M_widen_initEv(%"class.std::ctype"* nonnull align 8 dereferenceable(570) %59)
  %70 = bitcast %"class.std::ctype"* %59 to i8 (%"class.std::ctype"*, i8)***
  %71 = load i8 (%"class.std::ctype"*, i8)**, i8 (%"class.std::ctype"*, i8)*** %70, align 8, !tbaa !11
  %72 = getelementptr inbounds i8 (%"class.std::ctype"*, i8)*, i8 (%"class.std::ctype"*, i8)** %71, i64 6
  %73 = load i8 (%"class.std::ctype"*, i8)*, i8 (%"class.std::ctype"*, i8)** %72, align 8
  %74 = tail call signext i8 %73(%"class.std::ctype"* nonnull align 8 dereferenceable(570) %59, i8 signext 10)
  br label %75

75:                                               ; preds = %66, %69
  %76 = phi i8 [ %68, %66 ], [ %74, %69 ]
  %77 = tail call nonnull align 8 dereferenceable(8) %"class.std::basic_ostream"* @_ZNSo3putEc(%"class.std::basic_ostream"* nonnull align 8 dereferenceable(8) @_ZSt4cout, i8 signext %76)
  %78 = tail call nonnull align 8 dereferenceable(8) %"class.std::basic_ostream"* @_ZNSo5flushEv(%"class.std::basic_ostream"* nonnull align 8 dereferenceable(8) %77)
  ret i32 0
}

; Function Attrs: argmemonly mustprogress nofree nounwind readonly willreturn
declare i64 @strlen(i8* nocapture) local_unnamed_addr #4

declare void @_ZSt17__istream_extractRSiPcl(%"class.std::basic_istream"* nonnull align 8 dereferenceable(16), i8*, i64) local_unnamed_addr #0

declare nonnull align 8 dereferenceable(8) %"class.std::basic_ostream"* @_ZSt16__ostream_insertIcSt11char_traitsIcEERSt13basic_ostreamIT_T0_ES6_PKS3_l(%"class.std::basic_ostream"* nonnull align 8 dereferenceable(8), i8*, i64) local_unnamed_addr #0

declare nonnull align 8 dereferenceable(8) %"class.std::basic_ostream"* @_ZNSo3putEc(%"class.std::basic_ostream"* nonnull align 8 dereferenceable(8), i8 signext) local_unnamed_addr #0

declare nonnull align 8 dereferenceable(8) %"class.std::basic_ostream"* @_ZNSo5flushEv(%"class.std::basic_ostream"* nonnull align 8 dereferenceable(8)) local_unnamed_addr #0

; Function Attrs: noreturn
declare void @_ZSt16__throw_bad_castv() local_unnamed_addr #5

declare void @_ZNKSt5ctypeIcE13_M_widen_initEv(%"class.std::ctype"* nonnull align 8 dereferenceable(570)) local_unnamed_addr #0

; Function Attrs: sspstrong uwtable
define internal void @_GLOBAL__sub_I_1072.cpp() #6 section ".text.startup" {
  tail call void @_ZNSt8ios_base4InitC1Ev(%"class.std::ios_base::Init"* nonnull align 1 dereferenceable(1) @_ZStL8__ioinit)
  %1 = tail call i32 @__cxa_atexit(void (i8*)* bitcast (void (%"class.std::ios_base::Init"*)* @_ZNSt8ios_base4InitD1Ev to void (i8*)*), i8* getelementptr inbounds (%"class.std::ios_base::Init", %"class.std::ios_base::Init"* @_ZStL8__ioinit, i64 0, i32 0), i8* nonnull @__dso_handle) #10
  ret void
}

; Function Attrs: nofree nosync nounwind readnone speculatable willreturn
declare i32 @llvm.smax.i32(i32, i32) #7

; Function Attrs: argmemonly nofree nounwind willreturn
declare void @llvm.memcpy.p0i8.p0i8.i64(i8* noalias nocapture writeonly, i8* noalias nocapture readonly, i64, i1 immarg) #8


!llvm.module.flags = !{!0, !1, !2, !3}
!llvm.ident = !{!4}

!0 = !{i32 1, !"wchar_size", i32 4}
!1 = !{i32 7, !"PIC Level", i32 2}
!2 = !{i32 7, !"PIE Level", i32 2}
!3 = !{i32 7, !"uwtable", i32 1}
!4 = !{!"clang version 13.0.0"}
!5 = !{!6, !6, i64 0}
!6 = !{!"omnipotent char", !7, i64 0}
!7 = !{!"Simple C++ TBAA"}
!8 = distinct !{!8, !9}
!9 = !{!"llvm.loop.mustprogress"}
!10 = distinct !{!10, !9}
!11 = !{!12, !12, i64 0}
!12 = !{!"vtable pointer", !7, i64 0}
!13 = !{!14, !15, i64 240}
!14 = !{!"_ZTSSt9basic_iosIcSt11char_traitsIcEE", !15, i64 216, !6, i64 224, !16, i64 225, !15, i64 232, !15, i64 240, !15, i64 248, !15, i64 256}
!15 = !{!"any pointer", !6, i64 0}
!16 = !{!"bool", !6, i64 0}
!17 = !{!18, !6, i64 56}
!18 = !{!"_ZTSSt5ctypeIcE", !15, i64 16, !16, i64 24, !15, i64 32, !15, i64 40, !15, i64 48, !6, i64 56, !6, i64 57, !6, i64 313, !6, i64 569}
